target datalayout = "e-m:e-p270:32:32-p271:32:32-p272:64:64-i64:64-i128:128-f80:128-n8:16:32:64-S128"
target triple = "x86_64-pc-linux-gnu"

%class.anon.1746 = type { ptr, ptr, ptr, ptr }

; Function Attrs: mustprogress nounwind uwtable
define internal void @"_ZZL31isNonViableMultiVersionOverloadPN5clang12FunctionDeclEENK3$_0clEPKS0_"(ptr noundef nonnull align 8 dereferenceable(32) %0, ptr noundef %1) #0 align 2 {
  %3 = alloca ptr, align 8
  %4 = alloca ptr, align 8
  store ptr %0, ptr %3, align 8
  store ptr %1, ptr %4, align 8
  %5 = load ptr, ptr %3, align 8
  %6 = getelementptr inbounds nuw %class.anon.1746, ptr %5, i32 0, i32 0
  %7 = load ptr, ptr %6, align 8
  %8 = load ptr, ptr %7, align 8
  %9 = load ptr, ptr %4, align 8
  %10 = icmp eq ptr %8, %9
  br i1 %10, label %11, label %17

11:                                               ; preds = %2
  %12 = getelementptr inbounds nuw %class.anon.1746, ptr %5, i32 0, i32 2
  %13 = load ptr, ptr %12, align 8
  %14 = load i32, ptr %13, align 4
  %15 = getelementptr inbounds nuw %class.anon.1746, ptr %5, i32 0, i32 1
  %16 = load ptr, ptr %15, align 8
  store i32 %14, ptr %16, align 4
  br label %24

17:                                               ; preds = %2
  %18 = load ptr, ptr %4, align 8
  %19 = call noundef zeroext i1 @_ZNK5clang12FunctionDecl27isTargetMultiVersionDefaultEv(ptr noundef nonnull align 8 dereferenceable(168) %18)
  br i1 %19, label %20, label %23

20:                                               ; preds = %17
  %21 = getelementptr inbounds nuw %class.anon.1746, ptr %5, i32 0, i32 3
  %22 = load ptr, ptr %21, align 8
  store i8 1, ptr %22, align 1
  br label %23

23:                                               ; preds = %20, %17
  br label %24

24:                                               ; preds = %23, %11
  %25 = getelementptr inbounds nuw %class.anon.1746, ptr %5, i32 0, i32 2
  %26 = load ptr, ptr %25, align 8
  %27 = load i32, ptr %26, align 4
  %28 = add i32 %27, 1
  store i32 %28, ptr %26, align 4
  ret void
}

; Function Attrs: mustprogress nounwind uwtable
define internal void @"_ZN4llvm12function_refIFvPN5clang12FunctionDeclEEE11callback_fnIZL31isNonViableMultiVersionOverloadS3_E3$_0EEvlS3_"(i64 noundef %0, ptr noundef %1) #0 align 2 {
  %3 = alloca i64, align 8
  %4 = alloca ptr, align 8
  store i64 %0, ptr %3, align 8
  store ptr %1, ptr %4, align 8
  %5 = load i64, ptr %3, align 8
  %6 = inttoptr i64 %5 to ptr
  %7 = load ptr, ptr %4, align 8
  call void @"_ZZL31isNonViableMultiVersionOverloadPN5clang12FunctionDeclEENK3$_0clEPKS0_"(ptr noundef nonnull align 8 dereferenceable(32) %6, ptr noundef %7)
  ret void
}