; Function Attrs: mustprogress nounwind uwtable
define internal void @"_ZN4llvm12function_refIFvPN5clang12FunctionDeclEEE11callback_fnIZL31isNonViableMultiVersionOverloadS3_E3$_0EEvlS3_"(i64 noundef %0, ptr noundef %1) #4 align 2 {
  %3 = inttoptr i64 %0 to ptr
  %4 = load ptr, ptr %3, align 8
  %5 = load ptr, ptr %4, align 8
  %6 = icmp eq ptr %5, %1
  br i1 %6, label %7, label %13

7:                                                ; preds = %2
  %8 = getelementptr inbounds nuw i8, ptr %3, i64 16
  %9 = load ptr, ptr %8, align 8
  %10 = load i32, ptr %9, align 4
  %11 = getelementptr inbounds nuw i8, ptr %3, i64 8
  %12 = load ptr, ptr %11, align 8
  store i32 %10, ptr %12, align 4
  br label %"_ZZL31isNonViableMultiVersionOverloadPN5clang12FunctionDeclEENK3$_0clEPKS0_.exit"

13:                                               ; preds = %2
  %14 = tail call noundef zeroext i1 @_ZNK5clang12FunctionDecl27isTargetMultiVersionDefaultEv(ptr noundef nonnull align 8 dereferenceable(168) %1) #26
  br i1 %14, label %15, label %"_ZZL31isNonViableMultiVersionOverloadPN5clang12FunctionDeclEENK3$_0clEPKS0_.exit"

15:                                               ; preds = %13
  %16 = getelementptr inbounds nuw i8, ptr %3, i64 24
  %17 = load ptr, ptr %16, align 8
  store i8 1, ptr %17, align 1
  br label %"_ZZL31isNonViableMultiVersionOverloadPN5clang12FunctionDeclEENK3$_0clEPKS0_.exit"

"_ZZL31isNonViableMultiVersionOverloadPN5clang12FunctionDeclEENK3$_0clEPKS0_.exit": ; preds = %7, %13, %15
  %18 = getelementptr inbounds nuw i8, ptr %3, i64 16
  %19 = load ptr, ptr %18, align 8
  %20 = load i32, ptr %19, align 4
  %21 = add i32 %20, 1
  store i32 %21, ptr %19, align 4
  ret void
}